target datalayout = "e-m:e-p270:32:32-p271:32:32-p272:64:64-i64:64-i128:128-f80:128-n8:16:32:64-S128"
target triple = "x86_64-pc-linux-gnu"

; Function Attrs: null_pointer_is_valid sspstrong uwtable
define hidden zeroext i1 @pcapng_write_block(ptr noundef %0, ptr noundef %1, i32 noundef %2, ptr noundef %3, ptr noundef %4) #0 {
  %6 = alloca i1, align 1
  %7 = alloca ptr, align 8
  %8 = alloca ptr, align 8
  %9 = alloca i32, align 4
  %10 = alloca ptr, align 8
  %11 = alloca ptr, align 8
  %12 = alloca i32, align 4
  %13 = alloca i32, align 4
  %14 = alloca i32, align 4
  store ptr %0, ptr %7, align 8
  store ptr %1, ptr %8, align 8
  store i32 %2, ptr %9, align 4
  store ptr %3, ptr %10, align 8
  store ptr %4, ptr %11, align 8
  call void @llvm.lifetime.start.p0(i64 4, ptr %12) #12
  call void @llvm.lifetime.start.p0(i64 4, ptr %13) #12
  %15 = load i32, ptr %9, align 4
  %16 = and i32 %15, 3
  %17 = icmp ne i32 %16, 0
  br i1 %17, label %23, label %18

18:                                               ; preds = %5
  %19 = load ptr, ptr %8, align 8
  %20 = ptrtoint ptr %19 to i64
  %21 = and i64 %20, 3
  %22 = icmp ne i64 %21, 0
  br i1 %22, label %23, label %25

23:                                               ; preds = %18, %5
  %24 = load ptr, ptr %11, align 8
  store i32 22, ptr %24, align 4
  store i1 false, ptr %6, align 1
  store i32 1, ptr %14, align 4
  br label %48

25:                                               ; preds = %18
  %26 = load ptr, ptr %8, align 8
  %27 = getelementptr i8, ptr %26, i64 4
  %28 = load i32, ptr %27, align 4
  store i32 %28, ptr %12, align 4
  %29 = load ptr, ptr %8, align 8
  %30 = load i32, ptr %9, align 4
  %31 = zext i32 %30 to i64
  %32 = getelementptr i8, ptr %29, i64 %31
  %33 = getelementptr i8, ptr %32, i64 -4
  %34 = load i32, ptr %33, align 4
  store i32 %34, ptr %13, align 4
  %35 = load i32, ptr %12, align 4
  %36 = load i32, ptr %13, align 4
  %37 = icmp ne i32 %35, %36
  br i1 %37, label %38, label %40

38:                                               ; preds = %25
  %39 = load ptr, ptr %11, align 8
  store i32 74, ptr %39, align 4
  store i1 false, ptr %6, align 1
  store i32 1, ptr %14, align 4
  br label %48

40:                                               ; preds = %25
  %41 = load ptr, ptr %7, align 8
  %42 = load ptr, ptr %8, align 8
  %43 = load i32, ptr %9, align 4
  %44 = zext i32 %43 to i64
  %45 = load ptr, ptr %10, align 8
  %46 = load ptr, ptr %11, align 8
  %47 = call zeroext i1 @write_to_file(ptr noundef %41, ptr noundef %42, i64 noundef %44, ptr noundef %45, ptr noundef %46)
  store i1 %47, ptr %6, align 1
  store i32 1, ptr %14, align 4
  br label %48

48:                                               ; preds = %40, %38, %23
  call void @llvm.lifetime.end.p0(i64 4, ptr %13) #12
  call void @llvm.lifetime.end.p0(i64 4, ptr %12) #12
  %49 = load i1, ptr %6, align 1
  ret i1 %49
}