; Function Attrs: null_pointer_is_valid sspstrong uwtable
define hidden noundef zeroext i1 @pcapng_write_block(ptr noundef readonly captures(none) %0, ptr noundef %1, i32 noundef %2, ptr noundef captures(none) %3, ptr noundef writeonly captures(none) %4) local_unnamed_addr #0 {
  %6 = and i32 %2, 3
  %.not = icmp eq i32 %6, 0
  %7 = ptrtoint ptr %1 to i64
  %8 = and i64 %7, 3
  %.not14 = icmp eq i64 %8, 0
  %or.cond = and i1 %.not, %.not14
  br i1 %or.cond, label %10, label %9

9:                                                ; preds = %5
  store i32 22, ptr %4, align 4
  br label %20

10:                                               ; preds = %5
  %11 = getelementptr i8, ptr %1, i64 4
  %12 = load i32, ptr %11, align 4
  %13 = zext i32 %2 to i64
  %14 = getelementptr i8, ptr %1, i64 %13
  %15 = getelementptr i8, ptr %14, i64 -4
  %16 = load i32, ptr %15, align 4
  %.not15 = icmp eq i32 %12, %16
  br i1 %.not15, label %18, label %17

17:                                               ; preds = %10
  store i32 74, ptr %4, align 4
  br label %20

18:                                               ; preds = %10
  %19 = tail call fastcc zeroext i1 @write_to_file(ptr noundef %0, ptr noundef %1, i64 noundef %13, ptr noundef %3, ptr noundef %4)
  br label %20

20:                                               ; preds = %18, %17, %9
  %.0 = phi i1 [ false, %9 ], [ false, %17 ], [ %19, %18 ]
  ret i1 %.0
}